; Function Attrs: mustprogress uwtable
define dso_local noundef nonnull ptr @_ZN6Status7factoryERK11BuildConfig(ptr noundef nonnull align 8 dereferenceable(25) %0) local_unnamed_addr #0 align 2 personality ptr @__gxx_personality_v0 {
  %2 = tail call noalias noundef nonnull dereferenceable(296) ptr @_Znwm(i64 noundef 296) #22
  store ptr getelementptr inbounds nuw inrange(-16, 96) (i8, ptr @_ZTV13StatusPrinter, i64 16), ptr %2, align 8, !tbaa !4
  %3 = getelementptr inbounds nuw i8, ptr %2, i64 8
  store ptr %0, ptr %3, align 8, !tbaa !7
  %4 = getelementptr inbounds nuw i8, ptr %2, i64 16
  %5 = getelementptr inbounds nuw i8, ptr %2, i64 64
  store i64 0, ptr %5, align 8, !tbaa !11
  %6 = getelementptr inbounds nuw i8, ptr %2, i64 72
  store i32 0, ptr %6, align 8, !tbaa !34
  %7 = getelementptr inbounds nuw i8, ptr %2, i64 80
  store i64 0, ptr %7, align 8, !tbaa !35
  %8 = getelementptr inbounds nuw i8, ptr %2, i64 88
  store i32 0, ptr %8, align 8, !tbaa !36
  %9 = getelementptr inbounds nuw i8, ptr %2, i64 96
  tail call void @llvm.memset.p0.i64(ptr noundef nonnull align 8 dereferenceable(44) %4, i8 0, i64 44, i1 false)
  invoke void @_ZN11LinePrinterC1Ev(ptr noundef nonnull align 8 dereferenceable(80) %9)
          to label %.noexc unwind label %27

.noexc:                                           ; preds = %1
  %10 = getelementptr inbounds nuw i8, ptr %2, i64 176
  %11 = getelementptr inbounds nuw i8, ptr %2, i64 192
  %12 = getelementptr inbounds nuw i8, ptr %0, i64 8
  tail call void @llvm.memset.p0.i64(ptr noundef nonnull align 8 dereferenceable(16) %10, i8 0, i64 16, i1 false)
  %13 = load i32, ptr %12, align 8, !tbaa !37
  store double -1.000000e+00, ptr %11, align 8, !tbaa !41
  %14 = getelementptr inbounds nuw i8, ptr %2, i64 200
  %15 = sext i32 %13 to i64
  store i64 %15, ptr %14, align 8, !tbaa !42
  %16 = getelementptr inbounds nuw i8, ptr %2, i64 208
  tail call void @llvm.memset.p0.i64(ptr noundef nonnull align 8 dereferenceable(80) %16, i8 0, i64 80, i1 false)
  invoke void @_ZNSt11_Deque_baseIdSaIdEE17_M_initialize_mapEm(ptr noundef nonnull align 8 dereferenceable(80) %16, i64 noundef 0)
          to label %17 unwind label %22

17:                                               ; preds = %.noexc
  %18 = getelementptr inbounds nuw i8, ptr %2, i64 288
  store i32 -1, ptr %18, align 8, !tbaa !43
  %19 = load ptr, ptr %3, align 8, !tbaa !44
  %20 = load i32, ptr %19, align 8, !tbaa !45
  %.not.i = icmp eq i32 %20, 2
  br i1 %.not.i, label %24, label %21

21:                                               ; preds = %17
  store i8 0, ptr %9, align 8, !tbaa !46
  br label %24

22:                                               ; preds = %.noexc
  %23 = landingpad { ptr, i32 }
          cleanup
  tail call void @_ZN11LinePrinterD2Ev(ptr noundef nonnull align 8 dereferenceable(80) %9) #23
  br label %.body

24:                                               ; preds = %21, %17
  %25 = getelementptr inbounds nuw i8, ptr %2, i64 184
  %26 = tail call ptr @getenv(ptr noundef nonnull @.str) #23
  %.not6.i = icmp eq ptr %26, null
  %spec.select.i = select i1 %.not6.i, ptr @.str.1, ptr %26
  store ptr %spec.select.i, ptr %25, align 8, !tbaa !47
  ret ptr %2

27:                                               ; preds = %1
  %28 = landingpad { ptr, i32 }
          cleanup
  br label %.body

.body:                                            ; preds = %22, %27
  %eh.lpad-body = phi { ptr, i32 } [ %28, %27 ], [ %23, %22 ]
  tail call void @_ZdlPvm(ptr noundef nonnull %2, i64 noundef 296) #24
  resume { ptr, i32 } %eh.lpad-body
}